target datalayout = "e-m:e-p270:32:32-p271:32:32-p272:64:64-i64:64-i128:128-f80:128-n8:16:32:64-S128"
target triple = "x86_64-pc-linux-gnu"

%"class.std::__cxx11::basic_string" = type { %"struct.std::__cxx11::basic_string<char>::_Alloc_hider", i64, %union.anon }
%"struct.std::__cxx11::basic_string<char>::_Alloc_hider" = type { ptr }
%union.anon = type { i64, [8 x i8] }
%"class.cv::Exception" = type <{ %"class.std::exception", %"class.std::__cxx11::basic_string", i32, [4 x i8], %"class.std::__cxx11::basic_string", %"class.std::__cxx11::basic_string", %"class.std::__cxx11::basic_string", i32, [4 x i8] }>
%"class.std::exception" = type { ptr }

@.str.5 = private unnamed_addr constant [11 x i8] c"4.12.0-dev\00", align 1
@stderr = external global ptr, align 8
@.str.124 = private unnamed_addr constant [50 x i8] c"OpenCV(%s) Error: %s (%s) in %s, file %s, line %d\00", align 1
@.str.125 = private unnamed_addr constant [17 x i8] c"unknown function\00", align 1
@stdout = external global ptr, align 8
@.str.126 = private unnamed_addr constant [4 x i8] c"%s\0A\00", align 1

; Function Attrs: mustprogress nounwind uwtable
define available_externally noundef ptr @_ZNKSt7__cxx1112basic_stringIcSt11char_traitsIcESaIcEE7_M_dataEv(ptr noundef nonnull align 8 dereferenceable(32) %0) #5 align 2 {
  %2 = alloca ptr, align 8
  store ptr %0, ptr %2, align 8, !tbaa !27
  %3 = load ptr, ptr %2, align 8
  %4 = getelementptr inbounds nuw %"class.std::__cxx11::basic_string", ptr %3, i32 0, i32 0
  %5 = getelementptr inbounds nuw %"struct.std::__cxx11::basic_string<char>::_Alloc_hider", ptr %4, i32 0, i32 0
  %6 = load ptr, ptr %5, align 8, !tbaa !213
  ret ptr %6
}

; Function Attrs: mustprogress nounwind uwtable
define available_externally noundef i64 @_ZNKSt7__cxx1112basic_stringIcSt11char_traitsIcESaIcEE4sizeEv(ptr noundef nonnull align 8 dereferenceable(32) %0) #5 align 2 {
  %2 = alloca ptr, align 8
  store ptr %0, ptr %2, align 8, !tbaa !27
  %3 = load ptr, ptr %2, align 8
  %4 = getelementptr inbounds nuw %"class.std::__cxx11::basic_string", ptr %3, i32 0, i32 1
  %5 = load i64, ptr %4, align 8, !tbaa !40
  ret i64 %5
}

; Function Attrs: mustprogress nounwind uwtable
define available_externally noundef ptr @_ZNKSt7__cxx1112basic_stringIcSt11char_traitsIcESaIcEE5c_strEv(ptr noundef nonnull align 8 dereferenceable(32) %0) #5 align 2 {
  %2 = alloca ptr, align 8
  store ptr %0, ptr %2, align 8, !tbaa !27
  %3 = load ptr, ptr %2, align 8
  %4 = call noundef ptr @_ZNKSt7__cxx1112basic_stringIcSt11char_traitsIcESaIcEE7_M_dataEv(ptr noundef nonnull align 8 dereferenceable(32) %3)
  ret ptr %4
}

; Function Attrs: mustprogress uwtable
define internal void @_ZN2cvL13dumpExceptionERKNS_9ExceptionE(ptr noundef nonnull align 8 dereferenceable(148) %0) #4 {
  %2 = alloca ptr, align 8
  %3 = alloca ptr, align 8
  %4 = alloca [4096 x i8], align 16
  store ptr %0, ptr %2, align 8, !tbaa !14
  call void @llvm.lifetime.start.p0(i64 8, ptr %3) #3
  %5 = load ptr, ptr %2, align 8, !tbaa !14
  %6 = getelementptr inbounds nuw %"class.cv::Exception", ptr %5, i32 0, i32 2
  %7 = load i32, ptr %6, align 8, !tbaa !18
  %8 = call ptr @cvErrorStr(i32 noundef %7)
  store ptr %8, ptr %3, align 8, !tbaa !10
  call void @llvm.lifetime.start.p0(i64 4096, ptr %4) #3
  %9 = getelementptr inbounds [4096 x i8], ptr %4, i64 0, i64 0
  %10 = load ptr, ptr %3, align 8, !tbaa !10
  %11 = load ptr, ptr %2, align 8, !tbaa !14
  %12 = getelementptr inbounds nuw %"class.cv::Exception", ptr %11, i32 0, i32 4
  %13 = call noundef ptr @_ZNKSt7__cxx1112basic_stringIcSt11char_traitsIcESaIcEE5c_strEv(ptr noundef nonnull align 8 dereferenceable(32) %12) #3
  %14 = load ptr, ptr %2, align 8, !tbaa !14
  %15 = getelementptr inbounds nuw %"class.cv::Exception", ptr %14, i32 0, i32 5
  %16 = call noundef i64 @_ZNKSt7__cxx1112basic_stringIcSt11char_traitsIcESaIcEE4sizeEv(ptr noundef nonnull align 8 dereferenceable(32) %15) #3
  %17 = icmp ugt i64 %16, 0
  br i1 %17, label %18, label %22

18:                                               ; preds = %1
  %19 = load ptr, ptr %2, align 8, !tbaa !14
  %20 = getelementptr inbounds nuw %"class.cv::Exception", ptr %19, i32 0, i32 5
  %21 = call noundef ptr @_ZNKSt7__cxx1112basic_stringIcSt11char_traitsIcESaIcEE5c_strEv(ptr noundef nonnull align 8 dereferenceable(32) %20) #3
  br label %23

22:                                               ; preds = %1
  br label %23

23:                                               ; preds = %22, %18
  %24 = phi ptr [ %21, %18 ], [ @.str.125, %22 ]
  %25 = load ptr, ptr %2, align 8, !tbaa !14
  %26 = getelementptr inbounds nuw %"class.cv::Exception", ptr %25, i32 0, i32 6
  %27 = call noundef ptr @_ZNKSt7__cxx1112basic_stringIcSt11char_traitsIcESaIcEE5c_strEv(ptr noundef nonnull align 8 dereferenceable(32) %26) #3
  %28 = load ptr, ptr %2, align 8, !tbaa !14
  %29 = getelementptr inbounds nuw %"class.cv::Exception", ptr %28, i32 0, i32 7
  %30 = load i32, ptr %29, align 8, !tbaa !24
  %31 = call noundef i32 (ptr, i32, ptr, ...) @_ZN2cv11cv_snprintfEPciPKcz(ptr noundef %9, i32 noundef 4096, ptr noundef @.str.124, ptr noundef @.str.5, ptr noundef %10, ptr noundef %13, ptr noundef %24, ptr noundef %27, i32 noundef %30)
  %32 = load ptr, ptr @stdout, align 8, !tbaa !89
  %33 = call i32 @fflush(ptr noundef %32)
  %34 = load ptr, ptr @stderr, align 8, !tbaa !89
  %35 = call i32 @fflush(ptr noundef %34)
  %36 = load ptr, ptr @stderr, align 8, !tbaa !89
  %37 = getelementptr inbounds [4096 x i8], ptr %4, i64 0, i64 0
  %38 = call i32 (ptr, ptr, ...) @fprintf(ptr noundef %36, ptr noundef @.str.126, ptr noundef %37) #3
  %39 = load ptr, ptr @stderr, align 8, !tbaa !89
  %40 = call i32 @fflush(ptr noundef %39)
  call void @llvm.lifetime.end.p0(i64 4096, ptr %4) #3
  call void @llvm.lifetime.end.p0(i64 8, ptr %3) #3
  ret void
}