; Function Attrs: cold mustprogress nofree nounwind uwtable
define internal fastcc void @_ZN2cvL13dumpExceptionERKNS_9ExceptionE(ptr noundef nonnull readonly align 8 captures(none) dereferenceable(148) %0) unnamed_addr #23 {
  %2 = alloca [4096 x i8], align 16
  %3 = getelementptr inbounds nuw i8, ptr %0, i64 40
  %4 = load i32, ptr %3, align 8, !tbaa !27
  %5 = tail call ptr @cvErrorStr(i32 noundef %4)
  call void @llvm.lifetime.start.p0(i64 4096, ptr nonnull %2) #34
  %6 = getelementptr inbounds nuw i8, ptr %0, i64 48
  %7 = load ptr, ptr %6, align 8, !tbaa !21
  %8 = getelementptr inbounds nuw i8, ptr %0, i64 80
  %9 = getelementptr inbounds nuw i8, ptr %0, i64 88
  %10 = load i64, ptr %9, align 8, !tbaa !24
  %.not = icmp eq i64 %10, 0
  %11 = load ptr, ptr %8, align 8
  %spec.select = select i1 %.not, ptr @.str.125, ptr %11
  %12 = getelementptr inbounds nuw i8, ptr %0, i64 112
  %13 = load ptr, ptr %12, align 8, !tbaa !21
  %14 = getelementptr inbounds nuw i8, ptr %0, i64 144
  %15 = load i32, ptr %14, align 8, !tbaa !30
  %16 = call noundef i32 (ptr, i32, ptr, ...) @_ZN2cv11cv_snprintfEPciPKcz(ptr noundef nonnull %2, i32 noundef 4096, ptr noundef nonnull @.str.124, ptr noundef nonnull @.str.5, ptr noundef nonnull %5, ptr noundef %7, ptr noundef %spec.select, ptr noundef %13, i32 noundef %15)
  %17 = load ptr, ptr @stdout, align 8, !tbaa !116
  %18 = tail call i32 @fflush(ptr noundef %17)
  %19 = load ptr, ptr @stderr, align 8, !tbaa !116
  %20 = tail call i32 @fflush(ptr noundef %19)
  %21 = load ptr, ptr @stderr, align 8, !tbaa !116
  %22 = call i32 (ptr, ptr, ...) @fprintf(ptr noundef %21, ptr noundef nonnull @.str.126, ptr noundef nonnull %2) #53
  %23 = load ptr, ptr @stderr, align 8, !tbaa !116
  %24 = call i32 @fflush(ptr noundef %23)
  call void @llvm.lifetime.end.p0(i64 4096, ptr nonnull %2) #34
  ret void
}